(lp0
F-0.27500000000000002
aF-0.22499999999999998
aF-0.17499999999999999
aF-0.125
aF-0.074999999999999997
aF-0.024999999999999998
aF0.025000000000000001
aF0.075000000000000011
aF0.125
aF0.17499999999999999
aF0.22500000000000001
aF0.27500000000000002
aF0.32499999999999996
aF0.375
aF0.42500000000000004
aF0.47499999999999998
aF0.52500000000000002
aF0.57499999999999996
aF0.625
aF0.67500000000000004
aF0.72499999999999998
aF0.77500000000000002
aF0.82499999999999996
aF0.875
aF0.92500000000000004
aF0.97499999999999998
aF1.0249999999999999
aF1.0750000000000002
aF1.125
aF1.1749999999999998
aF1.2250000000000001
aF1.2749999999999999
a.